target datalayout = "e-m:e-p270:32:32-p271:32:32-p272:64:64-i64:64-i128:128-f80:128-n8:16:32:64-S128"
target triple = "x86_64-pc-linux-gnu"

%struct.GenerationContext = type { %struct.MemoryContextData, i32, i32, i32, i32, ptr, ptr, %struct.dlist_head }
%struct.MemoryContextData = type { i32, i8, i8, i64, ptr, ptr, ptr, ptr, ptr, ptr, ptr, ptr }
%struct.dlist_head = type { %struct.dlist_node }
%struct.dlist_node = type { ptr, ptr }
%struct.GenerationBlock = type { %struct.dlist_node, ptr, i64, i32, i32, ptr, ptr }
%struct.MemoryChunk = type { i64 }

; Function Attrs: inlinehint nounwind uwtable
define internal void @dlist_init(ptr noundef %0) #5 {
  %2 = alloca ptr, align 8
  store ptr %0, ptr %2, align 8
  %3 = load ptr, ptr %2, align 8
  %4 = getelementptr inbounds nuw %struct.dlist_head, ptr %3, i32 0, i32 0
  %5 = load ptr, ptr %2, align 8
  %6 = getelementptr inbounds nuw %struct.dlist_head, ptr %5, i32 0, i32 0
  %7 = getelementptr inbounds nuw %struct.dlist_node, ptr %6, i32 0, i32 0
  store ptr %4, ptr %7, align 8
  %8 = load ptr, ptr %2, align 8
  %9 = getelementptr inbounds nuw %struct.dlist_head, ptr %8, i32 0, i32 0
  %10 = getelementptr inbounds nuw %struct.dlist_node, ptr %9, i32 0, i32 1
  store ptr %4, ptr %10, align 8
  ret void
}

; Function Attrs: inlinehint nounwind uwtable
define internal void @dlist_push_head(ptr noundef %0, ptr noundef %1) #5 {
  %3 = alloca ptr, align 8
  %4 = alloca ptr, align 8
  store ptr %0, ptr %3, align 8
  store ptr %1, ptr %4, align 8
  %5 = load ptr, ptr %3, align 8
  %6 = getelementptr inbounds nuw %struct.dlist_head, ptr %5, i32 0, i32 0
  %7 = getelementptr inbounds nuw %struct.dlist_node, ptr %6, i32 0, i32 1
  %8 = load ptr, ptr %7, align 8
  %9 = icmp eq ptr %8, null
  br i1 %9, label %10, label %12

10:                                               ; preds = %2
  %11 = load ptr, ptr %3, align 8
  call void @dlist_init(ptr noundef %11)
  br label %12

12:                                               ; preds = %10, %2
  %13 = load ptr, ptr %3, align 8
  %14 = getelementptr inbounds nuw %struct.dlist_head, ptr %13, i32 0, i32 0
  %15 = getelementptr inbounds nuw %struct.dlist_node, ptr %14, i32 0, i32 1
  %16 = load ptr, ptr %15, align 8
  %17 = load ptr, ptr %4, align 8
  %18 = getelementptr inbounds nuw %struct.dlist_node, ptr %17, i32 0, i32 1
  store ptr %16, ptr %18, align 8
  %19 = load ptr, ptr %3, align 8
  %20 = getelementptr inbounds nuw %struct.dlist_head, ptr %19, i32 0, i32 0
  %21 = load ptr, ptr %4, align 8
  %22 = getelementptr inbounds nuw %struct.dlist_node, ptr %21, i32 0, i32 0
  store ptr %20, ptr %22, align 8
  %23 = load ptr, ptr %4, align 8
  %24 = load ptr, ptr %4, align 8
  %25 = getelementptr inbounds nuw %struct.dlist_node, ptr %24, i32 0, i32 1
  %26 = load ptr, ptr %25, align 8
  %27 = getelementptr inbounds nuw %struct.dlist_node, ptr %26, i32 0, i32 0
  store ptr %23, ptr %27, align 8
  %28 = load ptr, ptr %4, align 8
  %29 = load ptr, ptr %3, align 8
  %30 = getelementptr inbounds nuw %struct.dlist_head, ptr %29, i32 0, i32 0
  %31 = getelementptr inbounds nuw %struct.dlist_node, ptr %30, i32 0, i32 1
  store ptr %28, ptr %31, align 8
  ret void
}

; Function Attrs: inlinehint nounwind uwtable
define internal void @MemoryChunkSetHdrMaskExternal(ptr noundef %0, i32 noundef %1) #5 {
  %3 = alloca ptr, align 8
  %4 = alloca i32, align 4
  store ptr %0, ptr %3, align 8
  store i32 %1, ptr %4, align 4
  %5 = load i32, ptr %4, align 4
  %6 = zext i32 %5 to i64
  %7 = or i64 -5645020766237429840, %6
  %8 = load ptr, ptr %3, align 8
  %9 = getelementptr inbounds nuw %struct.MemoryChunk, ptr %8, i32 0, i32 0
  store i64 %7, ptr %9, align 8
  ret void
}

; Function Attrs: inlinehint nounwind uwtable
define internal void @MemoryContextCheckSize(ptr noundef %0, i64 noundef %1, i32 noundef %2) #5 {
  %4 = alloca ptr, align 8
  %5 = alloca i64, align 8
  %6 = alloca i32, align 4
  store ptr %0, ptr %4, align 8
  store i64 %1, ptr %5, align 8
  store i32 %2, ptr %6, align 4
  %7 = load i64, ptr %5, align 8
  %8 = icmp ule i64 %7, 1073741823
  %9 = xor i1 %8, true
  %10 = zext i1 %9 to i32
  %11 = icmp ne i32 %10, 0
  %12 = zext i1 %11 to i32
  %13 = sext i32 %12 to i64
  %14 = call i64 @llvm.expect.i64(i64 %13, i64 0)
  %15 = icmp ne i64 %14, 0
  br i1 %15, label %16, label %28

16:                                               ; preds = %3
  %17 = load i32, ptr %6, align 4
  %18 = and i32 %17, 1
  %19 = icmp ne i32 %18, 0
  br i1 %19, label %20, label %23

20:                                               ; preds = %16
  %21 = load i64, ptr %5, align 8
  %22 = icmp ule i64 %21, 9223372036854775807
  br i1 %22, label %27, label %23

23:                                               ; preds = %20, %16
  %24 = load ptr, ptr %4, align 8
  %25 = load i64, ptr %5, align 8
  %26 = load i32, ptr %6, align 4
  call void @MemoryContextSizeFailure(ptr noundef %24, i64 noundef %25, i32 noundef %26) #15
  unreachable

27:                                               ; preds = %20
  br label %28

28:                                               ; preds = %27, %3
  ret void
}

; Function Attrs: noinline nounwind uwtable
define internal ptr @GenerationAllocLarge(ptr noundef %0, i64 noundef %1, i32 noundef %2) #7 {
  %4 = alloca ptr, align 8
  %5 = alloca ptr, align 8
  %6 = alloca i64, align 8
  %7 = alloca i32, align 4
  %8 = alloca ptr, align 8
  %9 = alloca ptr, align 8
  %10 = alloca ptr, align 8
  %11 = alloca i64, align 8
  %12 = alloca i64, align 8
  %13 = alloca i64, align 8
  %14 = alloca i32, align 4
  store ptr %0, ptr %5, align 8
  store i64 %1, ptr %6, align 8
  store i32 %2, ptr %7, align 4
  call void @llvm.lifetime.start.p0(i64 8, ptr %8) #12
  %15 = load ptr, ptr %5, align 8
  store ptr %15, ptr %8, align 8
  call void @llvm.lifetime.start.p0(i64 8, ptr %9) #12
  call void @llvm.lifetime.start.p0(i64 8, ptr %10) #12
  call void @llvm.lifetime.start.p0(i64 8, ptr %11) #12
  call void @llvm.lifetime.start.p0(i64 8, ptr %12) #12
  call void @llvm.lifetime.start.p0(i64 8, ptr %13) #12
  %16 = load ptr, ptr %5, align 8
  %17 = load i64, ptr %6, align 8
  %18 = load i32, ptr %7, align 4
  call void @MemoryContextCheckSize(ptr noundef %16, i64 noundef %17, i32 noundef %18)
  %19 = load i64, ptr %6, align 8
  %20 = add i64 %19, 7
  %21 = and i64 %20, -8
  store i64 %21, ptr %11, align 8
  %22 = load i64, ptr %11, align 8
  %23 = add i64 %22, 8
  store i64 %23, ptr %12, align 8
  %24 = load i64, ptr %12, align 8
  %25 = add i64 %24, 56
  store i64 %25, ptr %13, align 8
  %26 = load i64, ptr %13, align 8
  %27 = call noalias ptr @malloc(i64 noundef %26) #13
  store ptr %27, ptr %9, align 8
  %28 = load ptr, ptr %9, align 8
  %29 = icmp eq ptr %28, null
  br i1 %29, label %30, label %35

30:                                               ; preds = %3
  %31 = load ptr, ptr %5, align 8
  %32 = load i64, ptr %6, align 8
  %33 = load i32, ptr %7, align 4
  %34 = call ptr @MemoryContextAllocationFailure(ptr noundef %31, i64 noundef %32, i32 noundef %33)
  store ptr %34, ptr %4, align 8
  store i32 1, ptr %14, align 4
  br label %73

35:                                               ; preds = %3
  %36 = load i64, ptr %13, align 8
  %37 = load ptr, ptr %5, align 8
  %38 = getelementptr inbounds nuw %struct.MemoryContextData, ptr %37, i32 0, i32 3
  %39 = load i64, ptr %38, align 8
  %40 = add i64 %39, %36
  store i64 %40, ptr %38, align 8
  %41 = load ptr, ptr %8, align 8
  %42 = load ptr, ptr %9, align 8
  %43 = getelementptr inbounds nuw %struct.GenerationBlock, ptr %42, i32 0, i32 1
  store ptr %41, ptr %43, align 8
  %44 = load i64, ptr %13, align 8
  %45 = load ptr, ptr %9, align 8
  %46 = getelementptr inbounds nuw %struct.GenerationBlock, ptr %45, i32 0, i32 2
  store i64 %44, ptr %46, align 8
  %47 = load ptr, ptr %9, align 8
  %48 = getelementptr inbounds nuw %struct.GenerationBlock, ptr %47, i32 0, i32 3
  store i32 1, ptr %48, align 8
  %49 = load ptr, ptr %9, align 8
  %50 = getelementptr inbounds nuw %struct.GenerationBlock, ptr %49, i32 0, i32 4
  store i32 0, ptr %50, align 4
  %51 = load ptr, ptr %9, align 8
  %52 = load i64, ptr %13, align 8
  %53 = getelementptr inbounds nuw i8, ptr %51, i64 %52
  %54 = load ptr, ptr %9, align 8
  %55 = getelementptr inbounds nuw %struct.GenerationBlock, ptr %54, i32 0, i32 6
  store ptr %53, ptr %55, align 8
  %56 = load ptr, ptr %9, align 8
  %57 = getelementptr inbounds nuw %struct.GenerationBlock, ptr %56, i32 0, i32 5
  store ptr %53, ptr %57, align 8
  %58 = load ptr, ptr %9, align 8
  %59 = getelementptr inbounds nuw i8, ptr %58, i64 56
  store ptr %59, ptr %10, align 8
  %60 = load ptr, ptr %10, align 8
  call void @MemoryChunkSetHdrMaskExternal(ptr noundef %60, i32 noundef 4)
  %61 = load ptr, ptr %8, align 8
  %62 = getelementptr inbounds nuw %struct.GenerationContext, ptr %61, i32 0, i32 7
  %63 = load ptr, ptr %9, align 8
  %64 = getelementptr inbounds nuw %struct.GenerationBlock, ptr %63, i32 0, i32 0
  call void @dlist_push_head(ptr noundef %62, ptr noundef %64)
  br label %65

65:                                               ; preds = %35
  br label %66

66:                                               ; preds = %65
  br label %67

67:                                               ; preds = %66
  br label %68

68:                                               ; preds = %67
  br label %69

69:                                               ; preds = %68
  br label %70

70:                                               ; preds = %69
  %71 = load ptr, ptr %10, align 8
  %72 = getelementptr inbounds nuw i8, ptr %71, i64 8
  store ptr %72, ptr %4, align 8
  store i32 1, ptr %14, align 4
  br label %73

73:                                               ; preds = %70, %30
  call void @llvm.lifetime.end.p0(i64 8, ptr %13) #12
  call void @llvm.lifetime.end.p0(i64 8, ptr %12) #12
  call void @llvm.lifetime.end.p0(i64 8, ptr %11) #12
  call void @llvm.lifetime.end.p0(i64 8, ptr %10) #12
  call void @llvm.lifetime.end.p0(i64 8, ptr %9) #12
  call void @llvm.lifetime.end.p0(i64 8, ptr %8) #12
  %74 = load ptr, ptr %4, align 8
  ret ptr %74
}